target datalayout = "e-m:e-p270:32:32-p271:32:32-p272:64:64-i64:64-i128:128-f80:128-n8:16:32:64-S128"
target triple = "x86_64-pc-linux-gnu"

%"class.llvm::SmallVectorBase" = type { ptr, i32, i32 }
%"class.llvm::SmallPtrSetImplBase.base" = type <{ ptr, ptr, i32, i32, i32 }>
%"struct.llvm::AnalysisKey" = type { [8 x i8] }
%"class.llvm::DependenceInfo" = type <{ ptr, ptr, ptr, ptr, i32, i32, i32, [4 x i8] }>
%"struct.llvm::detail::AnalysisResultModel" = type { %"struct.llvm::detail::AnalysisResultConcept", %"class.llvm::AAResults" }
%"struct.llvm::detail::AnalysisResultConcept" = type { ptr }
%"class.llvm::AAResults" = type { ptr, %"class.std::vector", %"class.std::vector.24" }
%"class.std::vector" = type { %"struct.std::_Vector_base" }
%"struct.std::_Vector_base" = type { %"struct.std::_Vector_base<std::unique_ptr<llvm::AAResults::Concept>, std::allocator<std::unique_ptr<llvm::AAResults::Concept>>>::_Vector_impl" }
%"struct.std::_Vector_base<std::unique_ptr<llvm::AAResults::Concept>, std::allocator<std::unique_ptr<llvm::AAResults::Concept>>>::_Vector_impl" = type { %"struct.std::_Vector_base<std::unique_ptr<llvm::AAResults::Concept>, std::allocator<std::unique_ptr<llvm::AAResults::Concept>>>::_Vector_impl_data" }
%"struct.std::_Vector_base<std::unique_ptr<llvm::AAResults::Concept>, std::allocator<std::unique_ptr<llvm::AAResults::Concept>>>::_Vector_impl_data" = type { ptr, ptr, ptr }
%"class.std::vector.24" = type { %"struct.std::_Vector_base.25" }
%"struct.std::_Vector_base.25" = type { %"struct.std::_Vector_base<llvm::AnalysisKey *, std::allocator<llvm::AnalysisKey *>>::_Vector_impl" }
%"struct.std::_Vector_base<llvm::AnalysisKey *, std::allocator<llvm::AnalysisKey *>>::_Vector_impl" = type { %"struct.std::_Vector_base<llvm::AnalysisKey *, std::allocator<llvm::AnalysisKey *>>::_Vector_impl_data" }
%"struct.std::_Vector_base<llvm::AnalysisKey *, std::allocator<llvm::AnalysisKey *>>::_Vector_impl_data" = type { ptr, ptr, ptr }
%"struct.llvm::detail::AnalysisResultModel.309" = type { %"struct.llvm::detail::AnalysisResultConcept", %"class.llvm::ScalarEvolution" }
%"class.llvm::ScalarEvolution" = type { ptr, ptr, i8, ptr, ptr, ptr, ptr, %"class.std::unique_ptr.29", %"class.llvm::DenseMap.37", %"class.llvm::DenseMap.40", %"class.llvm::DenseMap.43", %"class.llvm::DenseMap.46", %"class.llvm::DenseMap.49", %"class.llvm::SmallPtrSet.52", %"class.llvm::SmallPtrSet.55", %"class.llvm::SmallPtrSet.55", %"class.llvm::SmallPtrSet.55", i8, i8, [6 x i8], %"class.llvm::DenseMap.58", %"class.llvm::DenseMap.61", %"class.llvm::DenseMap.61", %"class.llvm::DenseMap.64", %"class.llvm::DenseMap.67", %"class.llvm::DenseMap.70", %"class.llvm::DenseMap.70", %"class.llvm::DenseMap.73", %"class.llvm::DenseMap.76", %"class.llvm::DenseMap.79", %"class.llvm::DenseMap.82", %"class.llvm::DenseMap.85", %"class.llvm::DenseMap.85", %"class.llvm::FoldingSet", %"class.llvm::FoldingSet.88", %"class.llvm::BumpPtrAllocatorImpl", %"class.llvm::DenseMap.101", %"class.llvm::DenseMap.104", %"class.llvm::SmallPtrSet.107", %"class.llvm::SmallPtrSet.107", ptr }
%"class.std::unique_ptr.29" = type { %"struct.std::__uniq_ptr_data.30" }
%"struct.std::__uniq_ptr_data.30" = type { %"class.std::__uniq_ptr_impl.31" }
%"class.std::__uniq_ptr_impl.31" = type { %"class.std::tuple.32" }
%"class.std::tuple.32" = type { %"struct.std::_Tuple_impl.33" }
%"struct.std::_Tuple_impl.33" = type { %"struct.std::_Head_base.36" }
%"struct.std::_Head_base.36" = type { ptr }
%"class.llvm::DenseMap.37" = type <{ ptr, i32, i32, i32, [4 x i8] }>
%"class.llvm::DenseMap.40" = type <{ ptr, i32, i32, i32, [4 x i8] }>
%"class.llvm::DenseMap.43" = type <{ ptr, i32, i32, i32, [4 x i8] }>
%"class.llvm::DenseMap.46" = type <{ ptr, i32, i32, i32, [4 x i8] }>
%"class.llvm::DenseMap.49" = type <{ ptr, i32, i32, i32, [4 x i8] }>
%"class.llvm::SmallPtrSet.52" = type { %"class.llvm::SmallPtrSetImpl.base.54", [8 x ptr] }
%"class.llvm::SmallPtrSetImpl.base.54" = type { %"class.llvm::SmallPtrSetImplBase.base" }
%"class.llvm::SmallPtrSet.55" = type { %"class.llvm::SmallPtrSetImpl.base.57", [8 x ptr] }
%"class.llvm::SmallPtrSetImpl.base.57" = type { %"class.llvm::SmallPtrSetImplBase.base" }
%"class.llvm::DenseMap.58" = type <{ ptr, i32, i32, i32, [4 x i8] }>
%"class.llvm::DenseMap.61" = type <{ ptr, i32, i32, i32, [4 x i8] }>
%"class.llvm::DenseMap.64" = type <{ ptr, i32, i32, i32, [4 x i8] }>
%"class.llvm::DenseMap.67" = type <{ ptr, i32, i32, i32, [4 x i8] }>
%"class.llvm::DenseMap.70" = type <{ ptr, i32, i32, i32, [4 x i8] }>
%"class.llvm::DenseMap.73" = type <{ ptr, i32, i32, i32, [4 x i8] }>
%"class.llvm::DenseMap.76" = type <{ ptr, i32, i32, i32, [4 x i8] }>
%"class.llvm::DenseMap.79" = type <{ ptr, i32, i32, i32, [4 x i8] }>
%"class.llvm::DenseMap.82" = type <{ ptr, i32, i32, i32, [4 x i8] }>
%"class.llvm::DenseMap.85" = type <{ ptr, i32, i32, i32, [4 x i8] }>
%"class.llvm::FoldingSet" = type { %"class.llvm::FoldingSetImpl" }
%"class.llvm::FoldingSetImpl" = type { %"class.llvm::FoldingSetBase" }
%"class.llvm::FoldingSetBase" = type { ptr, i32, i32 }
%"class.llvm::FoldingSet.88" = type { %"class.llvm::FoldingSetImpl.89" }
%"class.llvm::FoldingSetImpl.89" = type { %"class.llvm::FoldingSetBase" }
%"class.llvm::BumpPtrAllocatorImpl" = type { ptr, ptr, %"class.llvm::SmallVector.91", %"class.llvm::SmallVector.96", i64, i64 }
%"class.llvm::SmallVector.91" = type { %"class.llvm::SmallVectorImpl.92", %"struct.llvm::SmallVectorStorage.95" }
%"class.llvm::SmallVectorImpl.92" = type { %"class.llvm::SmallVectorTemplateBase.93" }
%"class.llvm::SmallVectorTemplateBase.93" = type { %"class.llvm::SmallVectorTemplateCommon.94" }
%"class.llvm::SmallVectorTemplateCommon.94" = type { %"class.llvm::SmallVectorBase" }
%"struct.llvm::SmallVectorStorage.95" = type { [32 x i8] }
%"class.llvm::SmallVector.96" = type { %"class.llvm::SmallVectorImpl.97" }
%"class.llvm::SmallVectorImpl.97" = type { %"class.llvm::SmallVectorTemplateBase.98" }
%"class.llvm::SmallVectorTemplateBase.98" = type { %"class.llvm::SmallVectorTemplateCommon.99" }
%"class.llvm::SmallVectorTemplateCommon.99" = type { %"class.llvm::SmallVectorBase" }
%"class.llvm::DenseMap.101" = type <{ ptr, i32, i32, i32, [4 x i8] }>
%"class.llvm::DenseMap.104" = type <{ ptr, i32, i32, i32, [4 x i8] }>
%"class.llvm::SmallPtrSet.107" = type { %"class.llvm::SmallPtrSetImpl.base.109", [16 x ptr] }
%"class.llvm::SmallPtrSetImpl.base.109" = type { %"class.llvm::SmallPtrSetImplBase.base" }
%"struct.llvm::detail::AnalysisResultModel.310" = type { %"struct.llvm::detail::AnalysisResultConcept", %"class.llvm::LoopInfo" }
%"class.llvm::LoopInfo" = type { %"class.llvm::LoopInfoBase" }
%"class.llvm::LoopInfoBase" = type { %"class.llvm::DenseMap.110", %"class.std::vector.113", %"class.llvm::BumpPtrAllocatorImpl" }
%"class.llvm::DenseMap.110" = type <{ ptr, i32, i32, i32, [4 x i8] }>
%"class.std::vector.113" = type { %"struct.std::_Vector_base.114" }
%"struct.std::_Vector_base.114" = type { %"struct.std::_Vector_base<llvm::Loop *, std::allocator<llvm::Loop *>>::_Vector_impl" }
%"struct.std::_Vector_base<llvm::Loop *, std::allocator<llvm::Loop *>>::_Vector_impl" = type { %"struct.std::_Vector_base<llvm::Loop *, std::allocator<llvm::Loop *>>::_Vector_impl_data" }
%"struct.std::_Vector_base<llvm::Loop *, std::allocator<llvm::Loop *>>::_Vector_impl_data" = type { ptr, ptr, ptr }

@_ZN4llvm9AAManager3KeyE = external global %"struct.llvm::AnalysisKey", align 8
@_ZN4llvm23ScalarEvolutionAnalysis3KeyE = external global %"struct.llvm::AnalysisKey", align 8
@_ZN4llvm12LoopAnalysis3KeyE = external global %"struct.llvm::AnalysisKey", align 8

; Function Attrs: mustprogress nounwind uwtable
define linkonce_odr hidden noundef ptr @_ZN4llvm17AnalysisInfoMixinINS_12LoopAnalysisEE2IDEv() #1 comdat align 2 {
  ret ptr @_ZN4llvm12LoopAnalysis3KeyE
}

; Function Attrs: mustprogress nounwind uwtable
define linkonce_odr hidden noundef ptr @_ZN4llvm17AnalysisInfoMixinINS_23ScalarEvolutionAnalysisEE2IDEv() #1 comdat align 2 {
  ret ptr @_ZN4llvm23ScalarEvolutionAnalysis3KeyE
}

; Function Attrs: mustprogress nounwind uwtable
define linkonce_odr hidden noundef ptr @_ZN4llvm17AnalysisInfoMixinINS_9AAManagerEE2IDEv() #1 comdat align 2 {
  ret ptr @_ZN4llvm9AAManager3KeyE
}

; Function Attrs: mustprogress nounwind uwtable
define linkonce_odr hidden void @_ZN4llvm14DependenceInfoC2EPNS_8FunctionEPNS_9AAResultsEPNS_15ScalarEvolutionEPNS_8LoopInfoE(ptr noundef nonnull align 8 dereferenceable(44) %0, ptr noundef %1, ptr noundef %2, ptr noundef %3, ptr noundef %4) unnamed_addr #1 comdat align 2 {
  %6 = alloca ptr, align 8
  %7 = alloca ptr, align 8
  %8 = alloca ptr, align 8
  %9 = alloca ptr, align 8
  %10 = alloca ptr, align 8
  store ptr %0, ptr %6, align 8
  store ptr %1, ptr %7, align 8
  store ptr %2, ptr %8, align 8
  store ptr %3, ptr %9, align 8
  store ptr %4, ptr %10, align 8
  %11 = load ptr, ptr %6, align 8
  %12 = getelementptr inbounds nuw %"class.llvm::DependenceInfo", ptr %11, i32 0, i32 0
  %13 = load ptr, ptr %8, align 8
  store ptr %13, ptr %12, align 8
  %14 = getelementptr inbounds nuw %"class.llvm::DependenceInfo", ptr %11, i32 0, i32 1
  %15 = load ptr, ptr %9, align 8
  store ptr %15, ptr %14, align 8
  %16 = getelementptr inbounds nuw %"class.llvm::DependenceInfo", ptr %11, i32 0, i32 2
  %17 = load ptr, ptr %10, align 8
  store ptr %17, ptr %16, align 8
  %18 = getelementptr inbounds nuw %"class.llvm::DependenceInfo", ptr %11, i32 0, i32 3
  %19 = load ptr, ptr %7, align 8
  store ptr %19, ptr %18, align 8
  ret void
}

; Function Attrs: mustprogress nounwind uwtable
define linkonce_odr hidden noundef nonnull align 8 dereferenceable(144) ptr @_ZN4llvm15AnalysisManagerINS_8FunctionEJEE9getResultINS_12LoopAnalysisEEERNT_6ResultERS1_(ptr noundef nonnull align 8 dereferenceable(72) %0, ptr noundef nonnull align 8 dereferenceable(136) %1) #1 comdat align 2 {
  %3 = alloca ptr, align 8
  %4 = alloca ptr, align 8
  %5 = alloca ptr, align 8
  store ptr %0, ptr %3, align 8
  store ptr %1, ptr %4, align 8
  %6 = load ptr, ptr %3, align 8
  %7 = call noundef ptr @_ZN4llvm17AnalysisInfoMixinINS_12LoopAnalysisEE2IDEv()
  %8 = load ptr, ptr %4, align 8
  %9 = call noundef nonnull align 8 dereferenceable(8) ptr @_ZN4llvm15AnalysisManagerINS_8FunctionEJEE13getResultImplEPNS_11AnalysisKeyERS1_(ptr noundef nonnull align 8 dereferenceable(72) %6, ptr noundef %7, ptr noundef nonnull align 8 dereferenceable(136) %8)
  store ptr %9, ptr %5, align 8
  %10 = load ptr, ptr %5, align 8
  %11 = getelementptr inbounds nuw %"struct.llvm::detail::AnalysisResultModel.310", ptr %10, i32 0, i32 1
  ret ptr %11
}

; Function Attrs: mustprogress nounwind uwtable
define linkonce_odr hidden noundef nonnull align 8 dereferenceable(1392) ptr @_ZN4llvm15AnalysisManagerINS_8FunctionEJEE9getResultINS_23ScalarEvolutionAnalysisEEERNT_6ResultERS1_(ptr noundef nonnull align 8 dereferenceable(72) %0, ptr noundef nonnull align 8 dereferenceable(136) %1) #1 comdat align 2 {
  %3 = alloca ptr, align 8
  %4 = alloca ptr, align 8
  %5 = alloca ptr, align 8
  store ptr %0, ptr %3, align 8
  store ptr %1, ptr %4, align 8
  %6 = load ptr, ptr %3, align 8
  %7 = call noundef ptr @_ZN4llvm17AnalysisInfoMixinINS_23ScalarEvolutionAnalysisEE2IDEv()
  %8 = load ptr, ptr %4, align 8
  %9 = call noundef nonnull align 8 dereferenceable(8) ptr @_ZN4llvm15AnalysisManagerINS_8FunctionEJEE13getResultImplEPNS_11AnalysisKeyERS1_(ptr noundef nonnull align 8 dereferenceable(72) %6, ptr noundef %7, ptr noundef nonnull align 8 dereferenceable(136) %8)
  store ptr %9, ptr %5, align 8
  %10 = load ptr, ptr %5, align 8
  %11 = getelementptr inbounds nuw %"struct.llvm::detail::AnalysisResultModel.309", ptr %10, i32 0, i32 1
  ret ptr %11
}

; Function Attrs: mustprogress nounwind uwtable
define linkonce_odr hidden noundef nonnull align 8 dereferenceable(56) ptr @_ZN4llvm15AnalysisManagerINS_8FunctionEJEE9getResultINS_9AAManagerEEERNT_6ResultERS1_(ptr noundef nonnull align 8 dereferenceable(72) %0, ptr noundef nonnull align 8 dereferenceable(136) %1) #1 comdat align 2 {
  %3 = alloca ptr, align 8
  %4 = alloca ptr, align 8
  %5 = alloca ptr, align 8
  store ptr %0, ptr %3, align 8
  store ptr %1, ptr %4, align 8
  %6 = load ptr, ptr %3, align 8
  %7 = call noundef ptr @_ZN4llvm17AnalysisInfoMixinINS_9AAManagerEE2IDEv()
  %8 = load ptr, ptr %4, align 8
  %9 = call noundef nonnull align 8 dereferenceable(8) ptr @_ZN4llvm15AnalysisManagerINS_8FunctionEJEE13getResultImplEPNS_11AnalysisKeyERS1_(ptr noundef nonnull align 8 dereferenceable(72) %6, ptr noundef %7, ptr noundef nonnull align 8 dereferenceable(136) %8)
  store ptr %9, ptr %5, align 8
  %10 = load ptr, ptr %5, align 8
  %11 = getelementptr inbounds nuw %"struct.llvm::detail::AnalysisResultModel", ptr %10, i32 0, i32 1
  ret ptr %11
}

; Function Attrs: mustprogress nounwind uwtable
define dso_local void @_ZN4llvm18DependenceAnalysis3runERNS_8FunctionERNS_15AnalysisManagerIS1_JEEE(ptr dead_on_unwind noalias writable sret(%"class.llvm::DependenceInfo") align 8 %0, ptr noundef nonnull align 1 dereferenceable(1) %1, ptr noundef nonnull align 8 dereferenceable(136) %2, ptr noundef nonnull align 8 dereferenceable(72) %3) #1 align 2 {
  %5 = alloca ptr, align 8
  %6 = alloca ptr, align 8
  %7 = alloca ptr, align 8
  %8 = alloca ptr, align 8
  %9 = alloca ptr, align 8
  %10 = alloca ptr, align 8
  store ptr %1, ptr %5, align 8
  store ptr %2, ptr %6, align 8
  store ptr %3, ptr %7, align 8
  %11 = load ptr, ptr %7, align 8
  %12 = load ptr, ptr %6, align 8
  %13 = call noundef nonnull align 8 dereferenceable(56) ptr @_ZN4llvm15AnalysisManagerINS_8FunctionEJEE9getResultINS_9AAManagerEEERNT_6ResultERS1_(ptr noundef nonnull align 8 dereferenceable(72) %11, ptr noundef nonnull align 8 dereferenceable(136) %12)
  store ptr %13, ptr %8, align 8
  %14 = load ptr, ptr %7, align 8
  %15 = load ptr, ptr %6, align 8
  %16 = call noundef nonnull align 8 dereferenceable(1392) ptr @_ZN4llvm15AnalysisManagerINS_8FunctionEJEE9getResultINS_23ScalarEvolutionAnalysisEEERNT_6ResultERS1_(ptr noundef nonnull align 8 dereferenceable(72) %14, ptr noundef nonnull align 8 dereferenceable(136) %15)
  store ptr %16, ptr %9, align 8
  %17 = load ptr, ptr %7, align 8
  %18 = load ptr, ptr %6, align 8
  %19 = call noundef nonnull align 8 dereferenceable(144) ptr @_ZN4llvm15AnalysisManagerINS_8FunctionEJEE9getResultINS_12LoopAnalysisEEERNT_6ResultERS1_(ptr noundef nonnull align 8 dereferenceable(72) %17, ptr noundef nonnull align 8 dereferenceable(136) %18)
  store ptr %19, ptr %10, align 8
  %20 = load ptr, ptr %6, align 8
  %21 = load ptr, ptr %8, align 8
  %22 = load ptr, ptr %9, align 8
  %23 = load ptr, ptr %10, align 8
  call void @_ZN4llvm14DependenceInfoC2EPNS_8FunctionEPNS_9AAResultsEPNS_15ScalarEvolutionEPNS_8LoopInfoE(ptr noundef nonnull align 8 dereferenceable(44) %0, ptr noundef %20, ptr noundef %21, ptr noundef %22, ptr noundef %23)
  ret void
}