; Function Attrs: mustprogress nounwind uwtable
define dso_local void @_ZN4llvm18DependenceAnalysis3runERNS_8FunctionERNS_15AnalysisManagerIS1_JEEE(ptr dead_on_unwind noalias nocapture writable writeonly sret(%"class.llvm::DependenceInfo") align 8 %0, ptr nocapture noundef nonnull readnone align 1 dereferenceable(1) %1, ptr noundef nonnull align 8 dereferenceable(136) %2, ptr noundef nonnull align 8 dereferenceable(72) %3) local_unnamed_addr #0 align 2 {
  %5 = tail call noundef nonnull align 8 dereferenceable(8) ptr @_ZN4llvm15AnalysisManagerINS_8FunctionEJEE13getResultImplEPNS_11AnalysisKeyERS1_(ptr noundef nonnull align 8 dereferenceable(72) %3, ptr noundef nonnull @_ZN4llvm9AAManager3KeyE, ptr noundef nonnull align 8 dereferenceable(136) %2) #23
  %6 = getelementptr inbounds nuw i8, ptr %5, i64 8
  %7 = tail call noundef nonnull align 8 dereferenceable(8) ptr @_ZN4llvm15AnalysisManagerINS_8FunctionEJEE13getResultImplEPNS_11AnalysisKeyERS1_(ptr noundef nonnull align 8 dereferenceable(72) %3, ptr noundef nonnull @_ZN4llvm23ScalarEvolutionAnalysis3KeyE, ptr noundef nonnull align 8 dereferenceable(136) %2) #23
  %8 = getelementptr inbounds nuw i8, ptr %7, i64 8
  %9 = tail call noundef nonnull align 8 dereferenceable(8) ptr @_ZN4llvm15AnalysisManagerINS_8FunctionEJEE13getResultImplEPNS_11AnalysisKeyERS1_(ptr noundef nonnull align 8 dereferenceable(72) %3, ptr noundef nonnull @_ZN4llvm12LoopAnalysis3KeyE, ptr noundef nonnull align 8 dereferenceable(136) %2) #23
  %10 = getelementptr inbounds nuw i8, ptr %9, i64 8
  store ptr %6, ptr %0, align 8
  %11 = getelementptr inbounds nuw i8, ptr %0, i64 8
  store ptr %8, ptr %11, align 8
  %12 = getelementptr inbounds nuw i8, ptr %0, i64 16
  store ptr %10, ptr %12, align 8
  %13 = getelementptr inbounds nuw i8, ptr %0, i64 24
  store ptr %2, ptr %13, align 8
  ret void
}